; Function Attrs: nounwind uwtable
define noalias ptr @l_Lean_expandExplicitBindersAux(ptr noundef %0, ptr noundef readonly captures(none) %1, ptr noundef %2, ptr noundef %3, ptr noundef readonly captures(none) %4, ptr noundef %5) local_unnamed_addr #0 {
  %7 = getelementptr i8, ptr %1, i64 8
  %.val = load i64, ptr %7, align 8, !tbaa !13
  %8 = shl i64 %.val, 1
  %9 = or disjoint i64 %8, 1
  %10 = inttoptr i64 %9 to ptr
  %11 = tail call ptr @l_Lean_expandExplicitBindersAux_loop(ptr noundef %0, ptr noundef %1, ptr noundef %2, ptr noundef nonnull %10, ptr nonnull poison, ptr noundef %3, ptr noundef %4, ptr noundef %5)
  ret ptr %11
}